target datalayout = "e-m:e-p270:32:32-p271:32:32-p272:64:64-i64:64-i128:128-f80:128-n8:16:32:64-S128"
target triple = "x86_64-pc-linux-gnu"

%"struct.duckdb_yyjson::yyjson_read_err" = type { i32, ptr, i64 }

@.str.34 = private unnamed_addr constant [19 x i8] c"input path is NULL\00", align 1
@.str.35 = private unnamed_addr constant [20 x i8] c"file opening failed\00", align 1
@.str.77 = private unnamed_addr constant [4 x i8] c"rbe\00", align 1

; Function Attrs: alwaysinline mustprogress uwtable
define internal noundef ptr @_ZN13duckdb_yyjsonL10fopen_safeEPKcS1_(ptr noundef %0, ptr noundef %1) #5 {
  %3 = alloca ptr, align 8
  %4 = alloca ptr, align 8
  store ptr %0, ptr %3, align 8, !tbaa !92
  store ptr %1, ptr %4, align 8, !tbaa !92
  %5 = load ptr, ptr %3, align 8, !tbaa !92
  %6 = load ptr, ptr %4, align 8, !tbaa !92
  %7 = call noalias ptr @fopen(ptr noundef %5, ptr noundef %6)
  ret ptr %7
}

; Function Attrs: alwaysinline mustprogress uwtable
define internal noundef ptr @_ZN13duckdb_yyjsonL14fopen_readonlyEPKc(ptr noundef %0) #5 {
  %2 = alloca ptr, align 8
  store ptr %0, ptr %2, align 8, !tbaa !92
  %3 = load ptr, ptr %2, align 8, !tbaa !92
  %4 = call noundef ptr @_ZN13duckdb_yyjsonL10fopen_safeEPKcS1_(ptr noundef %3, ptr noundef @.str.77)
  ret ptr %4
}

; Function Attrs: mustprogress uwtable
define noundef ptr @_ZN13duckdb_yyjson16yyjson_read_fileEPKcjPKNS_10yyjson_alcEPNS_15yyjson_read_errE(ptr noundef %0, i32 noundef %1, ptr noundef %2, ptr noundef %3) #1 {
  %5 = alloca ptr, align 8
  %6 = alloca ptr, align 8
  %7 = alloca i32, align 4
  %8 = alloca ptr, align 8
  %9 = alloca ptr, align 8
  %10 = alloca %"struct.duckdb_yyjson::yyjson_read_err", align 8
  %11 = alloca ptr, align 8
  %12 = alloca ptr, align 8
  %13 = alloca i32, align 4
  store ptr %0, ptr %6, align 8, !tbaa !92
  store i32 %1, ptr %7, align 4, !tbaa !198
  store ptr %2, ptr %8, align 8, !tbaa !3
  store ptr %3, ptr %9, align 8, !tbaa !199
  call void @llvm.lifetime.start.p0(i64 24, ptr %10) #15
  call void @llvm.lifetime.start.p0(i64 8, ptr %11) #15
  call void @llvm.lifetime.start.p0(i64 8, ptr %12) #15
  %14 = load ptr, ptr %9, align 8, !tbaa !199
  %15 = icmp ne ptr %14, null
  br i1 %15, label %17, label %16

16:                                               ; preds = %4
  store ptr %10, ptr %9, align 8, !tbaa !199
  br label %17

17:                                               ; preds = %16, %4
  %18 = load ptr, ptr %6, align 8, !tbaa !92
  %19 = icmp ne ptr %18, null
  %20 = xor i1 %19, true
  %21 = xor i1 %20, true
  %22 = xor i1 %21, true
  %23 = zext i1 %22 to i64
  %24 = call i64 @llvm.expect.i64(i64 %23, i64 0)
  %25 = icmp ne i64 %24, 0
  br i1 %25, label %26, label %36

26:                                               ; preds = %17
  br label %27

27:                                               ; preds = %26
  %28 = load ptr, ptr %9, align 8, !tbaa !199
  %29 = getelementptr inbounds nuw %"struct.duckdb_yyjson::yyjson_read_err", ptr %28, i32 0, i32 2
  store i64 0, ptr %29, align 8, !tbaa !201
  %30 = load ptr, ptr %9, align 8, !tbaa !199
  %31 = getelementptr inbounds nuw %"struct.duckdb_yyjson::yyjson_read_err", ptr %30, i32 0, i32 1
  store ptr @.str.34, ptr %31, align 8, !tbaa !203
  %32 = load ptr, ptr %9, align 8, !tbaa !199
  %33 = getelementptr inbounds nuw %"struct.duckdb_yyjson::yyjson_read_err", ptr %32, i32 0, i32 0
  store i32 1, ptr %33, align 8, !tbaa !204
  store ptr null, ptr %5, align 8
  store i32 1, ptr %13, align 4
  br label %66

34:                                               ; No predecessors!
  br label %35

35:                                               ; preds = %34
  br label %36

36:                                               ; preds = %35, %17
  %37 = load ptr, ptr %6, align 8, !tbaa !92
  %38 = call noundef ptr @_ZN13duckdb_yyjsonL14fopen_readonlyEPKc(ptr noundef %37)
  store ptr %38, ptr %12, align 8, !tbaa !231
  %39 = load ptr, ptr %12, align 8, !tbaa !231
  %40 = icmp ne ptr %39, null
  %41 = xor i1 %40, true
  %42 = xor i1 %41, true
  %43 = xor i1 %42, true
  %44 = zext i1 %43 to i64
  %45 = call i64 @llvm.expect.i64(i64 %44, i64 0)
  %46 = icmp ne i64 %45, 0
  br i1 %46, label %47, label %57

47:                                               ; preds = %36
  br label %48

48:                                               ; preds = %47
  %49 = load ptr, ptr %9, align 8, !tbaa !199
  %50 = getelementptr inbounds nuw %"struct.duckdb_yyjson::yyjson_read_err", ptr %49, i32 0, i32 2
  store i64 0, ptr %50, align 8, !tbaa !201
  %51 = load ptr, ptr %9, align 8, !tbaa !199
  %52 = getelementptr inbounds nuw %"struct.duckdb_yyjson::yyjson_read_err", ptr %51, i32 0, i32 1
  store ptr @.str.35, ptr %52, align 8, !tbaa !203
  %53 = load ptr, ptr %9, align 8, !tbaa !199
  %54 = getelementptr inbounds nuw %"struct.duckdb_yyjson::yyjson_read_err", ptr %53, i32 0, i32 0
  store i32 12, ptr %54, align 8, !tbaa !204
  store ptr null, ptr %5, align 8
  store i32 1, ptr %13, align 4
  br label %66

55:                                               ; No predecessors!
  br label %56

56:                                               ; preds = %55
  br label %57

57:                                               ; preds = %56, %36
  %58 = load ptr, ptr %12, align 8, !tbaa !231
  %59 = load i32, ptr %7, align 4, !tbaa !198
  %60 = load ptr, ptr %8, align 8, !tbaa !3
  %61 = load ptr, ptr %9, align 8, !tbaa !199
  %62 = call noundef ptr @_ZN13duckdb_yyjson14yyjson_read_fpEP8_IO_FILEjPKNS_10yyjson_alcEPNS_15yyjson_read_errE(ptr noundef %58, i32 noundef %59, ptr noundef %60, ptr noundef %61)
  store ptr %62, ptr %11, align 8, !tbaa !80
  %63 = load ptr, ptr %12, align 8, !tbaa !231
  %64 = call i32 @fclose(ptr noundef %63)
  %65 = load ptr, ptr %11, align 8, !tbaa !80
  store ptr %65, ptr %5, align 8
  store i32 1, ptr %13, align 4
  br label %66

66:                                               ; preds = %57, %48, %27
  call void @llvm.lifetime.end.p0(i64 8, ptr %12) #15
  call void @llvm.lifetime.end.p0(i64 8, ptr %11) #15
  call void @llvm.lifetime.end.p0(i64 24, ptr %10) #15
  %67 = load ptr, ptr %5, align 8
  ret ptr %67
}