; Function Attrs: mustprogress uwtable
define noundef ptr @_ZN13duckdb_yyjson16yyjson_read_fileEPKcjPKNS_10yyjson_alcEPNS_15yyjson_read_errE(ptr noundef readonly captures(address_is_null) %0, i32 noundef %1, ptr noundef captures(address_is_null) %2, ptr noundef %3) local_unnamed_addr #10 {
  %5 = alloca %"struct.duckdb_yyjson::yyjson_read_err", align 8
  call void @llvm.lifetime.start.p0(i64 24, ptr nonnull %5) #31
  %.not = icmp eq ptr %3, null
  %spec.store.select = select i1 %.not, ptr %5, ptr %3
  %.not16 = icmp eq ptr %0, null
  br i1 %.not16, label %6, label %7, !prof !3

6:                                                ; preds = %4
  %spec.store.select.sroa.sel24.v.sroa.sel.v.sroa.sel.v = select i1 %.not, ptr %5, ptr %3
  %spec.store.select.sroa.sel24.v.sroa.sel.v.sroa.sel = getelementptr inbounds nuw i8, ptr %spec.store.select.sroa.sel24.v.sroa.sel.v.sroa.sel.v, i64 16
  store i64 0, ptr %spec.store.select.sroa.sel24.v.sroa.sel.v.sroa.sel, align 8, !tbaa !145
  %spec.store.select.sroa.sel27.v.sroa.sel.v.sroa.sel.v = select i1 %.not, ptr %5, ptr %3
  %spec.store.select.sroa.sel27.v.sroa.sel.v.sroa.sel = getelementptr inbounds nuw i8, ptr %spec.store.select.sroa.sel27.v.sroa.sel.v.sroa.sel.v, i64 8
  store ptr @.str.34, ptr %spec.store.select.sroa.sel27.v.sroa.sel.v.sroa.sel, align 8, !tbaa !147
  store i32 1, ptr %spec.store.select, align 8, !tbaa !148
  br label %13

7:                                                ; preds = %4
  %8 = tail call noalias noundef ptr @fopen(ptr noundef nonnull %0, ptr noundef nonnull @.str.77)
  %.not17 = icmp eq ptr %8, null
  br i1 %.not17, label %9, label %10, !prof !3

9:                                                ; preds = %7
  %spec.store.select.sroa.sel.v.sroa.sel.v.sroa.sel.v = select i1 %.not, ptr %5, ptr %3
  %spec.store.select.sroa.sel.v.sroa.sel.v.sroa.sel = getelementptr inbounds nuw i8, ptr %spec.store.select.sroa.sel.v.sroa.sel.v.sroa.sel.v, i64 16
  store i64 0, ptr %spec.store.select.sroa.sel.v.sroa.sel.v.sroa.sel, align 8, !tbaa !145
  %spec.store.select.sroa.sel21.v.sroa.sel.v.sroa.sel.v = select i1 %.not, ptr %5, ptr %3
  %spec.store.select.sroa.sel21.v.sroa.sel.v.sroa.sel = getelementptr inbounds nuw i8, ptr %spec.store.select.sroa.sel21.v.sroa.sel.v.sroa.sel.v, i64 8
  store ptr @.str.35, ptr %spec.store.select.sroa.sel21.v.sroa.sel.v.sroa.sel, align 8, !tbaa !147
  store i32 12, ptr %spec.store.select, align 8, !tbaa !148
  br label %13

10:                                               ; preds = %7
  %11 = call noundef ptr @_ZN13duckdb_yyjson14yyjson_read_fpEP8_IO_FILEjPKNS_10yyjson_alcEPNS_15yyjson_read_errE(ptr noundef nonnull %8, i32 noundef %1, ptr noundef %2, ptr noundef nonnull %spec.store.select)
  %12 = call i32 @fclose(ptr noundef nonnull %8)
  br label %13

13:                                               ; preds = %10, %9, %6
  %.0 = phi ptr [ null, %6 ], [ null, %9 ], [ %11, %10 ]
  call void @llvm.lifetime.end.p0(i64 24, ptr nonnull %5) #31
  ret ptr %.0
}